; Function Attrs: mustprogress uwtable
define void @_ZN6marisa5Agent5clearEv(ptr nocapture noundef nonnull align 8 dereferenceable(48) %0) local_unnamed_addr #5 align 2 personality ptr @__gxx_personality_v0 {
  %2 = alloca %"class.marisa::Agent", align 8
  call void @_ZN6marisa5AgentC1Ev(ptr noundef nonnull align 8 dereferenceable(48) %2)
  %3 = load ptr, ptr %2, align 8
  %4 = load ptr, ptr %0, align 8
  store ptr %4, ptr %2, align 8
  store ptr %3, ptr %0, align 8
  %5 = getelementptr inbounds i8, ptr %2, i64 8
  %6 = getelementptr inbounds i8, ptr %0, i64 8
  %7 = load <2 x i64>, ptr %6, align 8
  %8 = load <2 x i64>, ptr %5, align 8
  store <2 x i64> %7, ptr %5, align 8
  store <2 x i64> %8, ptr %6, align 8
  %9 = getelementptr inbounds i8, ptr %2, i64 24
  %10 = getelementptr inbounds i8, ptr %0, i64 24
  %11 = load ptr, ptr %9, align 8
  %12 = load ptr, ptr %10, align 8
  store ptr %12, ptr %9, align 8
  store ptr %11, ptr %10, align 8
  %13 = getelementptr inbounds i8, ptr %2, i64 32
  %14 = getelementptr inbounds i8, ptr %0, i64 32
  %15 = load <2 x i32>, ptr %14, align 8
  %16 = load <2 x i32>, ptr %13, align 8
  store <2 x i32> %15, ptr %13, align 8
  store <2 x i32> %16, ptr %14, align 8
  %17 = getelementptr inbounds i8, ptr %2, i64 40
  %18 = getelementptr inbounds i8, ptr %0, i64 40
  %19 = load ptr, ptr %17, align 8
  %20 = load ptr, ptr %18, align 8
  store ptr %20, ptr %17, align 8
  store ptr %19, ptr %18, align 8
  call void @_ZN6marisa5AgentD1Ev(ptr noundef nonnull align 8 dereferenceable(48) %2) #13
  ret void
}